; Function Attrs: nounwind uwtable
define ptr @l_Lean_Elab_Term_elabBinder___rarg(ptr noundef %0, ptr noundef %1, ptr noundef %2, ptr noundef %3, ptr noundef %4, ptr noundef %5, ptr noundef %6, ptr noundef %7, ptr noundef %8) #1 {
  tail call void @lean_inc_heartbeat() #6
  %10 = tail call noalias ptr @mi_malloc_small(i64 noundef 24) #6
  %11 = icmp eq ptr %10, null
  br i1 %11, label %12, label %lean_alloc_ctor.exit

12:                                               ; preds = %9
  tail call void @lean_internal_panic_out_of_memory() #7
  unreachable

lean_alloc_ctor.exit:                             ; preds = %9
  %13 = getelementptr inbounds nuw i8, ptr %10, i64 4
  store i32 1, ptr %10, align 4, !tbaa !8
  store i32 16908312, ptr %13, align 4
  %14 = getelementptr inbounds nuw i8, ptr %10, i64 8
  store ptr %0, ptr %14, align 8, !tbaa !4
  %15 = getelementptr inbounds nuw i8, ptr %10, i64 16
  store ptr inttoptr (i64 1 to ptr), ptr %15, align 8, !tbaa !4
  %16 = tail call ptr @lean_array_mk(ptr noundef nonnull %10) #6
  tail call void @lean_inc_heartbeat() #6
  %17 = tail call noalias ptr @mi_malloc_small(i64 noundef 32) #6
  %18 = icmp eq ptr %17, null
  br i1 %18, label %19, label %lean_alloc_closure.exit

19:                                               ; preds = %lean_alloc_ctor.exit
  tail call void @lean_internal_panic_out_of_memory() #7
  unreachable

lean_alloc_closure.exit:                          ; preds = %lean_alloc_ctor.exit
  %20 = getelementptr inbounds nuw i8, ptr %17, i64 4
  store i32 1, ptr %17, align 4, !tbaa !8
  store i32 -184549344, ptr %20, align 4
  %21 = getelementptr inbounds nuw i8, ptr %17, i64 8
  store ptr @l_Lean_Elab_Term_elabBinder___rarg___lambda__1___boxed, ptr %21, align 8, !tbaa !4
  %22 = getelementptr inbounds nuw i8, ptr %17, i64 16
  store i16 9, ptr %22, align 8, !tbaa !15
  %23 = getelementptr inbounds nuw i8, ptr %17, i64 18
  store i16 1, ptr %23, align 2, !tbaa !15
  %24 = getelementptr inbounds nuw i8, ptr %17, i64 24
  store ptr %1, ptr %24, align 8, !tbaa !4
  tail call void @lean_inc_heartbeat() #6
  %25 = tail call noalias ptr @mi_malloc_small(i64 noundef 32) #6
  %26 = icmp eq ptr %25, null
  br i1 %26, label %27, label %l_Lean_Elab_Term_elabBinders___rarg.exit

27:                                               ; preds = %lean_alloc_closure.exit
  tail call void @lean_internal_panic_out_of_memory() #7
  unreachable

l_Lean_Elab_Term_elabBinders___rarg.exit:         ; preds = %lean_alloc_closure.exit
  %28 = getelementptr inbounds nuw i8, ptr %25, i64 4
  store i32 1, ptr %25, align 4, !tbaa !8
  store i32 -184549344, ptr %28, align 4
  %29 = getelementptr inbounds nuw i8, ptr %25, i64 8
  store ptr @l_Lean_Elab_Term_elabBinders___rarg___lambda__1, ptr %29, align 8, !tbaa !4
  %30 = getelementptr inbounds nuw i8, ptr %25, i64 16
  store i16 9, ptr %30, align 8, !tbaa !15
  %31 = getelementptr inbounds nuw i8, ptr %25, i64 18
  store i16 1, ptr %31, align 2, !tbaa !15
  %32 = getelementptr inbounds nuw i8, ptr %25, i64 24
  store ptr %17, ptr %32, align 8, !tbaa !4
  %33 = tail call ptr @l_Lean_Elab_Term_elabBindersEx___rarg(ptr noundef %16, ptr noundef nonnull %25, ptr noundef %2, ptr noundef %3, ptr noundef %4, ptr noundef %5, ptr noundef %6, ptr noundef %7, ptr noundef %8)
  ret ptr %33
}